target datalayout = "e-m:e-p270:32:32-p271:32:32-p272:64:64-i64:64-i128:128-f80:128-n8:16:32:64-S128"
target triple = "x86_64-pc-linux-gnu"

%struct._zend_op_array = type { i8, [3 x i8], i32, ptr, ptr, ptr, i32, i32, ptr, ptr, ptr, ptr, i32, ptr, i32, i32, i32, ptr, ptr, ptr, ptr, ptr, i32, i32, ptr, ptr, ptr, i32, i32, i32, i32, ptr, ptr, [6 x ptr] }
%struct.zend_type = type { ptr, i32 }
%struct._zend_property_info = type { i32, i32, ptr, ptr, ptr, ptr, %struct.zend_type, ptr, ptr }
%struct._zend_arg_info = type { ptr, %struct.zend_type, ptr }

; Function Attrs: nounwind uwtable
define dso_local i32 @zend_verify_property_hook_variance(ptr noundef %0, ptr noundef %1) #0 {
  %3 = alloca i32, align 4
  %4 = alloca ptr, align 8
  %5 = alloca ptr, align 8
  %6 = alloca ptr, align 8
  %7 = alloca i32, align 4
  %8 = alloca ptr, align 8
  store ptr %0, ptr %4, align 8, !tbaa !52
  store ptr %1, ptr %5, align 8, !tbaa !73
  %9 = load ptr, ptr %4, align 8, !tbaa !52
  %10 = getelementptr inbounds nuw %struct._zend_property_info, ptr %9, i32 0, i32 8
  %11 = load ptr, ptr %10, align 8, !tbaa !69
  %12 = icmp ne ptr %11, null
  br i1 %12, label %13, label %21

13:                                               ; preds = %2
  %14 = load ptr, ptr %4, align 8, !tbaa !52
  %15 = getelementptr inbounds nuw %struct._zend_property_info, ptr %14, i32 0, i32 8
  %16 = load ptr, ptr %15, align 8, !tbaa !69
  %17 = getelementptr inbounds ptr, ptr %16, i64 1
  %18 = load ptr, ptr %17, align 8, !tbaa !73
  %19 = load ptr, ptr %5, align 8, !tbaa !73
  %20 = icmp eq ptr %18, %19
  br label %21

21:                                               ; preds = %13, %2
  %22 = phi i1 [ false, %2 ], [ %20, %13 ]
  call void @llvm.assume(i1 %22)
  call void @llvm.lifetime.start.p0(i64 8, ptr %6) #19
  %23 = load ptr, ptr %5, align 8, !tbaa !73
  %24 = getelementptr inbounds nuw %struct._zend_op_array, ptr %23, i32 0, i32 8
  %25 = load ptr, ptr %24, align 8, !tbaa !46
  %26 = getelementptr inbounds %struct._zend_arg_info, ptr %25, i64 0
  store ptr %26, ptr %6, align 8, !tbaa !77
  %27 = load ptr, ptr %6, align 8, !tbaa !77
  %28 = getelementptr inbounds nuw %struct._zend_arg_info, ptr %27, i32 0, i32 1
  %29 = getelementptr inbounds nuw %struct.zend_type, ptr %28, i32 0, i32 1
  %30 = load i32, ptr %29, align 8, !tbaa !79
  %31 = and i32 %30, 33554431
  %32 = icmp ne i32 %31, 0
  br i1 %32, label %34, label %33

33:                                               ; preds = %21
  store i32 2, ptr %3, align 4
  store i32 1, ptr %7, align 4
  br label %61

34:                                               ; preds = %21
  %35 = load ptr, ptr %4, align 8, !tbaa !52
  %36 = getelementptr inbounds nuw %struct._zend_property_info, ptr %35, i32 0, i32 6
  %37 = getelementptr inbounds nuw %struct.zend_type, ptr %36, i32 0, i32 1
  %38 = load i32, ptr %37, align 8, !tbaa !71
  %39 = and i32 %38, 33554431
  %40 = icmp ne i32 %39, 0
  br i1 %40, label %42, label %41

41:                                               ; preds = %34
  store i32 0, ptr %3, align 4
  store i32 1, ptr %7, align 4
  br label %61

42:                                               ; preds = %34
  call void @llvm.lifetime.start.p0(i64 8, ptr %8) #19
  %43 = load ptr, ptr %4, align 8, !tbaa !52
  %44 = getelementptr inbounds nuw %struct._zend_property_info, ptr %43, i32 0, i32 5
  %45 = load ptr, ptr %44, align 8, !tbaa !54
  store ptr %45, ptr %8, align 8, !tbaa !8
  %46 = load ptr, ptr %8, align 8, !tbaa !8
  %47 = load ptr, ptr %4, align 8, !tbaa !52
  %48 = getelementptr inbounds nuw %struct._zend_property_info, ptr %47, i32 0, i32 6
  %49 = load ptr, ptr %8, align 8, !tbaa !8
  %50 = load ptr, ptr %6, align 8, !tbaa !77
  %51 = getelementptr inbounds nuw %struct._zend_arg_info, ptr %50, i32 0, i32 1
  %52 = getelementptr inbounds nuw { ptr, i32 }, ptr %48, i32 0, i32 0
  %53 = load ptr, ptr %52, align 8
  %54 = getelementptr inbounds nuw { ptr, i32 }, ptr %48, i32 0, i32 1
  %55 = load i32, ptr %54, align 8
  %56 = getelementptr inbounds nuw { ptr, i32 }, ptr %51, i32 0, i32 0
  %57 = load ptr, ptr %56, align 8
  %58 = getelementptr inbounds nuw { ptr, i32 }, ptr %51, i32 0, i32 1
  %59 = load i32, ptr %58, align 8
  %60 = call i32 @zend_perform_covariant_type_check(ptr noundef %46, ptr %53, i32 %55, ptr noundef %49, ptr %57, i32 %59)
  store i32 %60, ptr %3, align 4
  store i32 1, ptr %7, align 4
  call void @llvm.lifetime.end.p0(i64 8, ptr %8) #19
  br label %61

61:                                               ; preds = %42, %41, %33
  call void @llvm.lifetime.end.p0(i64 8, ptr %6) #19
  %62 = load i32, ptr %3, align 4
  ret i32 %62
}