; Function Attrs: nounwind uwtable
define dso_local range(i32 -1, 3) i32 @zend_verify_property_hook_variance(ptr noundef readonly captures(none) %0, ptr noundef readonly captures(address) %1) local_unnamed_addr #2 {
  %3 = getelementptr inbounds nuw i8, ptr %0, i64 64
  %4 = load ptr, ptr %3, align 8, !tbaa !105, !nonnull !81, !noundef !81
  %5 = getelementptr inbounds nuw i8, ptr %4, i64 8
  %6 = load ptr, ptr %5, align 8, !tbaa !108
  %7 = icmp eq ptr %6, %1
  tail call void @llvm.assume(i1 %7)
  %8 = getelementptr inbounds nuw i8, ptr %1, i64 40
  %9 = load ptr, ptr %8, align 8, !tbaa !21
  %10 = getelementptr inbounds nuw i8, ptr %9, i64 8
  %11 = getelementptr inbounds nuw i8, ptr %9, i64 16
  %12 = load i32, ptr %11, align 8, !tbaa !113
  %13 = and i32 %12, 33554431
  %.not = icmp eq i32 %13, 0
  br i1 %.not, label %25, label %14

14:                                               ; preds = %2
  %15 = getelementptr inbounds nuw i8, ptr %0, i64 48
  %16 = load i32, ptr %15, align 8, !tbaa !106
  %17 = and i32 %16, 33554431
  %.not11 = icmp eq i32 %17, 0
  br i1 %.not11, label %25, label %18

18:                                               ; preds = %14
  %19 = getelementptr inbounds nuw i8, ptr %0, i64 40
  %20 = getelementptr inbounds nuw i8, ptr %0, i64 32
  %21 = load ptr, ptr %20, align 8, !tbaa !98
  %22 = load ptr, ptr %19, align 8
  %23 = load ptr, ptr %10, align 8
  %24 = tail call i32 @zend_perform_covariant_type_check(ptr noundef %21, ptr %22, i32 %16, ptr noundef %21, ptr %23, i32 %12)
  br label %25

25:                                               ; preds = %14, %2, %18
  %.0 = phi i32 [ %24, %18 ], [ 2, %2 ], [ 0, %14 ]
  ret i32 %.0
}